; Function Attrs: mustprogress uwtable
define hidden noundef ptr @_Z23mk_ufbv_rewriter_tacticR11ast_managerRK10params_ref(ptr noundef nonnull align 8 dereferenceable(976) %m, ptr noundef nonnull align 8 dereferenceable(8) %p) local_unnamed_addr #3 personality ptr @__gxx_personality_v0 {
entry:
  %call = tail call noalias noundef ptr @_ZN6memory8allocateEm(i64 noundef 32)
  %m_ref_count.i.i = getelementptr inbounds i8, ptr %call, i64 8
  store i32 0, ptr %m_ref_count.i.i, align 8
  store ptr getelementptr inbounds ({ [25 x ptr] }, ptr @_ZTV27demodulator_rewriter_tactic, i64 0, i32 0, i64 2), ptr %call, align 8
  %m_manager.i = getelementptr inbounds i8, ptr %call, i64 16
  store ptr %m, ptr %m_manager.i, align 8
  %m_params.i = getelementptr inbounds i8, ptr %call, i64 24
  tail call void @_ZN10params_refC1ERKS_(ptr noundef nonnull align 8 dereferenceable(8) %m_params.i, ptr noundef nonnull align 8 dereferenceable(8) %p)
  ret ptr %call
}